; Function Attrs: null_pointer_is_valid sspstrong uwtable
define internal i32 @dissect_dns(ptr noundef %0, ptr noundef %1, ptr noundef %2, ptr noundef %3) #0 {
  %5 = getelementptr inbounds nuw i8, ptr %1, i64 296
  %6 = load ptr, ptr %5, align 8
  %7 = tail call i32 @g_strcmp0(ptr noundef %6, ptr noundef nonnull @.str.23)
  %.not = icmp eq i32 %7, 0
  br i1 %.not, label %8, label %12

8:                                                ; preds = %4
  %9 = getelementptr inbounds nuw i8, ptr %1, i64 8
  %10 = load ptr, ptr %9, align 8
  tail call void @col_set_str(ptr noundef %10, i32 noundef 35, ptr noundef nonnull @.str.1178)
  tail call fastcc void @dissect_dns_common(ptr noundef %0, ptr noundef %1, ptr noundef %2, i32 noundef 2, i1 noundef zeroext false, i1 noundef zeroext false)
  %11 = tail call i32 @tvb_captured_length(ptr noundef %0)
  br label %25

12:                                               ; preds = %4
  %13 = getelementptr inbounds nuw i8, ptr %1, i64 280
  %14 = load i32, ptr %13, align 8
  %15 = icmp eq i32 %14, 2
  br i1 %15, label %16, label %20

16:                                               ; preds = %12
  %17 = load i8, ptr @dns_desegment, align 1, !range !9, !noundef !10
  %18 = trunc nuw i8 %17 to i1
  tail call void @tcp_dissect_pdus(ptr noundef %0, ptr noundef %1, ptr noundef %2, i1 noundef zeroext %18, i32 noundef 2, ptr noundef nonnull @get_dns_pdu_len, ptr noundef nonnull @dissect_dns_tcp_pdu, ptr noundef %3)
  %19 = tail call i32 @tvb_reported_length(ptr noundef %0)
  br label %25

20:                                               ; preds = %12
  %21 = getelementptr inbounds nuw i8, ptr %1, i64 8
  %22 = load ptr, ptr %21, align 8
  tail call void @col_set_str(ptr noundef %22, i32 noundef 35, ptr noundef nonnull @.str.10)
  tail call fastcc void @dissect_dns_common(ptr noundef %0, ptr noundef %1, ptr noundef %2, i32 noundef 0, i1 noundef zeroext false, i1 noundef zeroext false)
  %23 = tail call i32 @tvb_captured_length(ptr noundef %0)
  %24 = tail call i32 @tvb_captured_length(ptr noundef %0)
  br label %25

25:                                               ; preds = %20, %16, %8
  %.0 = phi i32 [ %11, %8 ], [ %19, %16 ], [ %24, %20 ]
  ret i32 %.0
}